; Function Attrs: nounwind uwtable
define dso_local noundef ptr @makeTargetEntry(ptr noundef %0, i16 noundef signext %1, ptr noundef %2, i1 noundef zeroext %3) local_unnamed_addr #0 {
  %5 = zext i1 %3 to i8
  %6 = tail call noundef ptr @palloc0(i64 noundef 48) #7
  store i32 62, ptr %6, align 4
  %7 = getelementptr inbounds nuw i8, ptr %6, i64 8
  store ptr %0, ptr %7, align 8
  %8 = getelementptr inbounds nuw i8, ptr %6, i64 16
  store i16 %1, ptr %8, align 8
  %9 = getelementptr inbounds nuw i8, ptr %6, i64 24
  store ptr %2, ptr %9, align 8
  %10 = getelementptr inbounds nuw i8, ptr %6, i64 32
  store i32 0, ptr %10, align 8
  %11 = getelementptr inbounds nuw i8, ptr %6, i64 36
  store i32 0, ptr %11, align 4
  %12 = getelementptr inbounds nuw i8, ptr %6, i64 40
  store i16 0, ptr %12, align 8
  %13 = getelementptr inbounds nuw i8, ptr %6, i64 42
  store i8 %5, ptr %13, align 2
  ret ptr %6
}